Certificate:
    Data:
        Version: 3 (0x2)
        Serial Number:
            9a:bd:4b:dd:b2:68:72:ce:2f:88:89:60:b6:59:53:74
        Signature Algorithm: sha256WithRSAEncryption
        Issuer: C=GB, O=Example, CN=Root CA
        Validity
            Not Before: Jul 28 01:15:41 2021 GMT
            Not After : Jul 26 01:15:41 2031 GMT
        Subject: C=GB, O=Example, CN=Root CA
        Subject Public Key Info:
            Public Key Algorithm: rsaEncryption
                RSA Public-Key: (4096 bit)
                Modulus:
                    00:98:b3:ba:37:06:f3:26:59:89:c5:95:5c:5b:39:
                    e9:cf:3b:69:a1:74:3c:48:58:77:7b:5c:d5:c4:c7:
                    f2:88:64:e1:76:67:82:f6:dd:7a:4c:e8:24:17:9b:
                    23:63:a0:bf:70:5a:94:40:dd:a5:8d:11:9b:cb:e9:
                    28:23:ac:8f:69:33:22:60:ad:17:0e:89:55:e0:2b:
                    f4:75:86:da:58:c8:95:22:a1:dc:ae:7b:da:5f:dd:
                    d3:03:5a:ca:40:1a:da:e6:23:0b:2d:7e:dc:9d:78:
                    5f:2b:ec:9b:b4:fe:89:b5:46:1f:6a:ce:5b:19:1e:
                    2a:b0:98:63:8a:86:3f:7e:c6:5b:48:f1:b3:24:71:
                    7f:54:24:51:0a:fa:f6:2b:84:53:d0:74:bd:02:c2:
                    8c:a9:3a:89:c1:ad:29:5a:24:4e:c4:8e:51:a4:a7:
                    bc:8c:b6:d9:e6:40:71:55:4a:de:95:ea:2d:8d:ee:
                    88:37:fb:3e:e5:c9:cb:8f:b9:a0:fd:f9:2d:e7:a1:
                    ae:f0:49:a2:eb:e3:68:92:e9:e5:a0:d0:cb:a0:e2:
                    8d:c3:13:ff:22:00:c1:1e:0a:23:13:a8:70:24:03:
                    fd:02:b7:33:8d:ea:8f:6a:5d:62:06:f7:95:02:82:
                    9f:cc:93:ce:cf:c2:c5:73:e8:0f:af:36:2b:41:17:
                    3f:21:d5:f6:b6:86:3c:e8:1a:a9:f2:58:8c:3d:e1:
                    d6:d3:f4:49:14:4d:76:54:30:c0:83:ae:e4:bc:4a:
                    c9:28:42:b0:3e:50:c9:cb:85:1f:61:93:4e:6d:38:
                    d7:d1:dd:fd:d7:82:b4:c9:26:be:97:de:2c:bd:ab:
                    9c:52:b5:8f:9d:b2:fb:1a:a2:d7:1a:50:84:2b:15:
                    b1:3d:f0:d9:31:8c:d6:e1:09:f5:74:97:0c:29:5e:
                    33:20:f8:3d:f9:b2:a9:4c:73:a0:68:6a:3c:91:3a:
                    7b:0e:7e:79:50:4e:90:c0:f6:18:e9:75:25:ec:99:
                    f5:b0:34:fd:2d:78:0f:b7:f2:70:6c:7f:26:84:be:
                    0c:82:a0:d8:25:7e:ac:b6:6a:6c:02:81:31:1a:fe:
                    3e:15:ad:1f:9b:d1:50:34:13:8b:40:d4:74:28:8f:
                    ee:bb:60:28:ef:fc:f4:00:83:55:08:e0:9a:37:d2:
                    00:05:7f:92:64:33:23:2d:39:0b:6b:3f:e5:a5:05:
                    60:6b:b8:d0:2b:f3:68:ad:17:d1:85:80:07:52:d6:
                    cd:69:26:cf:16:89:96:8e:d8:12:5a:8c:6d:b6:44:
                    bc:b1:ae:d7:d1:7b:2d:e9:3c:a4:b3:b1:07:7a:49:
                    b6:c0:7b:3d:1d:3e:5c:96:93:2d:1b:30:60:e0:1f:
                    f6:c8:49
                Exponent: 65537 (0x10001)
        X509v3 extensions:
            X509v3 Basic Constraints: critical
                CA:TRUE
            X509v3 Key Usage: critical
                Certificate Sign, CRL Sign
            X509v3 Subject Key Identifier: 
                F3:F3:B2:B5:84:D9:A3:F9:32:39:02:8E:52:1E:3F:65:B6:5F:8E:CA
    Signature Algorithm: sha256WithRSAEncryption
         0b:fa:40:e6:a8:45:33:0a:84:49:8f:0f:5b:ab:0a:b3:ba:90:
         2e:a2:4a:15:02:6a:3d:1a:5e:0d:7c:01:a8:37:6e:bc:06:2f:
         5c:ab:42:14:43:c2:56:95:c9:c8:1a:98:66:10:2f:7a:94:75:
         9c:14:a1:b6:70:b4:97:26:2c:e8:65:bc:54:4b:bf:ec:1e:65:
         4a:24:90:ce:d7:7c:74:e6:cc:db:fc:22:01:48:43:18:f8:ac:
         ad:5a:11:21:11:db:8a:18:fd:5a:83:97:ca:31:32:24:8d:d4:
         17:a6:fe:2a:aa:8b:3b:fa:a6:e5:0a:a1:f0:6d:5b:58:7b:c0:
         fb:c3:25:ec:a3:07:36:89:a0:89:66:15:4d:a4:ee:96:36:be:
         a6:6e:e7:ff:1f:ee:e2:e6:c2:ee:af:f5:0b:9f:67:56:50:37:
         c7:8a:6c:6b:b9:0b:8a:d3:42:e6:09:d8:4e:be:40:6a:94:07:
         a7:d3:9b:88:fb:e5:28:c6:cf:d4:98:b8:08:ed:ed:3d:c4:08:
         64:a8:c3:95:f3:71:5c:bb:ad:1a:e2:e9:0a:a2:04:c0:23:f4:
         ee:fc:40:79:db:71:dc:46:1c:9b:36:fb:ec:e6:c2:0f:22:74:
         a9:4d:d0:c8:a4:9c:bf:f7:19:54:cf:22:c7:11:9e:cd:e1:d5:
         9c:e7:25:93:7c:4b:e2:c9:4d:4c:8b:9c:7e:b6:9a:36:9b:5f:
         f0:d3:0a:ec:60:9e:89:ae:3b:8f:1a:fa:cb:7d:41:dc:0b:71:
         43:3e:05:d9:7d:c5:bb:84:58:15:ad:ef:41:7c:b2:af:b2:8b:
         1b:65:eb:de:19:97:4e:f7:a1:d9:e0:1c:02:63:aa:ee:79:b6:
         68:a7:d8:9f:b0:e0:48:44:28:97:dd:ac:d9:43:81:3e:b6:9b:
         88:74:db:10:25:58:7e:e6:06:4e:c2:14:57:51:85:a7:be:e4:
         9e:2c:73:a1:c8:2d:3e:b6:26:38:1d:9d:aa:d3:30:f6:bb:9c:
         24:ce:09:74:70:ad:38:60:a8:d2:ad:5f:a4:c4:55:d6:3d:2a:
         75:3d:2f:97:7c:61:ae:2b:cb:07:14:c6:0a:68:86:1c:d7:d6:
         6c:9c:4a:0e:19:f3:c7:7a:5c:dc:1d:b0:12:bb:69:55:75:19:
         60:71:97:5a:ff:75:84:a4:80:0c:4d:5f:29:06:fd:9d:45:2e:
         86:96:2e:28:6b:10:50:f0:15:ae:a2:ae:55:a9:6a:6e:c4:8f:
         ee:c7:df:f4:fa:b5:66:45:b4:6c:fc:35:1f:be:2b:45:90:0b:
         a2:d1:a8:2f:e0:98:a5:5f:e9:40:b7:95:a9:fc:5b:dd:65:47:
         fa:1f:65:b5:25:5c:53:e3
-----BEGIN CERTIFICATE-----
MIIFLzCCAxegAwIBAgIRAJq9S92yaHLOL4iJYLZZU3QwDQYJKoZIhvcNAQELBQAw
MTELMAkGA1UEBhMCR0IxEDAOBgNVBAoMB0V4YW1wbGUxEDAOBgNVBAMMB1Jvb3Qg
Q0EwHhcNMjEwNzI4MDExNTQxWhcNMzEwNzI2MDExNTQxWjAxMQswCQYDVQQGEwJH
QjEQMA4GA1UECgwHRXhhbXBsZTEQMA4GA1UEAwwHUm9vdCBDQTCCAiIwDQYJKoZI
hvcNAQEBBQADggIPADCCAgoCggIBAJizujcG8yZZicWVXFs56c87aaF0PEhYd3tc
1cTH8ohk4XZngvbdekzoJBebI2Ogv3BalEDdpY0Rm8vpKCOsj2kzImCtFw6JVeAr
9HWG2ljIlSKh3K572l/d0wNaykAa2uYjCy1+3J14Xyvsm7T+ibVGH2rOWxkeKrCY
Y4qGP37GW0jxsyRxf1QkUQr69iuEU9B0vQLCjKk6icGtKVokTsSOUaSnvIy22eZA
cVVK3pXqLY3uiDf7PuXJy4+5oP35LeehrvBJouvjaJLp5aDQy6DijcMT/yIAwR4K
IxOocCQD/QK3M43qj2pdYgb3lQKCn8yTzs/CxXPoD682K0EXPyHV9raGPOgaqfJY
jD3h1tP0SRRNdlQwwIOu5LxKyShCsD5QycuFH2GTTm0419Hd/deCtMkmvpfeLL2r
nFK1j52y+xqi1xpQhCsVsT3w2TGM1uEJ9XSXDCleMyD4PfmyqUxzoGhqPJE6ew5+
eVBOkMD2GOl1JeyZ9bA0/S14D7fycGx/JoS+DIKg2CV+rLZqbAKBMRr+PhWtH5vR
UDQTi0DUdCiP7rtgKO/89ACDVQjgmjfSAAV/kmQzIy05C2s/5aUFYGu40CvzaK0X
0YWAB1LWzWkmzxaJlo7YElqMbbZEvLGu19F7Lek8pLOxB3pJtsB7PR0+XJaTLRsw
YOAf9shJAgMBAAGjQjBAMA8GA1UdEwEB/wQFMAMBAf8wDgYDVR0PAQH/BAQDAgEG
MB0GA1UdDgQWBBTz87K1hNmj+TI5Ao5SHj9ltl+OyjANBgkqhkiG9w0BAQsFAAOC
AgEAC/pA5qhFMwqESY8PW6sKs7qQLqJKFQJqPRpeDXwBqDduvAYvXKtCFEPCVpXJ
yBqYZhAvepR1nBShtnC0lyYs6GW8VEu/7B5lSiSQztd8dObM2/wiAUhDGPisrVoR
IRHbihj9WoOXyjEyJI3UF6b+KqqLO/qm5Qqh8G1bWHvA+8Ml7KMHNomgiWYVTaTu
lja+pm7n/x/u4ubC7q/1C59nVlA3x4psa7kLitNC5gnYTr5AapQHp9ObiPvlKMbP
1Ji4CO3tPcQIZKjDlfNxXLutGuLpCqIEwCP07vxAedtx3EYcmzb77ObCDyJ0qU3Q
yKScv/cZVM8ixxGezeHVnOclk3xL4slNTIucfraaNptf8NMK7GCeia47jxr6y31B
3AtxQz4F2X3Fu4RYFa3vQXyyr7KLG2Xr3hmXTveh2eAcAmOq7nm2aKfYn7DgSEQo
l92s2UOBPrabiHTbECVYfuYGTsIUV1GFp77knixzocgtPrYmOB2dqtMw9rucJM4J
dHCtOGCo0q1fpMRV1j0qdT0vl3xhrivLBxTGCmiGHNfWbJxKDhnzx3pc3B2wErtp
VXUZYHGXWv91hKSADE1fKQb9nUUuhpYuKGsQUPAVrqKuValqbsSP7sff9Pq1ZkW0
bPw1H74rRZALotGoL+CYpV/pQLeVqfxb3WVH+h9ltSVcU+M=
-----END CERTIFICATE-----
